; Function Attrs: nounwind uwtable
define internal noundef i32 @_lib_draw_callback(ptr readnone captures(none) %0, ptr readnone captures(none) %1, ptr noundef %2) #0 {
  %.not.i = icmp eq ptr %2, null
  br i1 %.not.i, label %dt_lib_gui_update.exit, label %4

4:                                                ; preds = %3
  %5 = getelementptr inbounds nuw i8, ptr %2, i64 128
  %6 = load ptr, ptr %5, align 8, !tbaa !85
  %.not7.i = icmp eq ptr %6, null
  br i1 %.not7.i, label %dt_lib_gui_update.exit, label %7

7:                                                ; preds = %4
  %8 = getelementptr inbounds nuw i8, ptr %2, i64 432
  %9 = load i32, ptr %8, align 8, !tbaa !83
  %.not8.i = icmp eq i32 %9, 0
  br i1 %.not8.i, label %10, label %dt_lib_gui_update.exit

10:                                               ; preds = %7
  tail call void %6(ptr noundef nonnull %2) #19
  store i32 1, ptr %8, align 8, !tbaa !83
  br label %dt_lib_gui_update.exit

dt_lib_gui_update.exit:                           ; preds = %3, %4, %7, %10
  ret i32 0
}